target datalayout = "e-m:e-p270:32:32-p271:32:32-p272:64:64-i64:64-i128:128-f80:128-n8:16:32:64-S128"
target triple = "x86_64-pc-linux-gnu"

%struct._object = type { %union.anon.41, ptr }
%union.anon.41 = type { i64 }
%struct.PyVarObject = type { %struct._object, i64 }
%struct._typeobject = type { %struct.PyVarObject, ptr, i64, i64, ptr, i64, ptr, ptr, ptr, ptr, ptr, ptr, ptr, ptr, ptr, ptr, ptr, ptr, ptr, i64, ptr, ptr, ptr, ptr, i64, ptr, ptr, ptr, ptr, ptr, ptr, ptr, ptr, ptr, i64, ptr, ptr, ptr, ptr, ptr, ptr, ptr, ptr, ptr, ptr, ptr, i32, ptr, ptr, i8, i16 }
%struct.PyStructSequence_Desc = type { ptr, ptr, ptr, i32 }
%struct.PyStructSequence_Field = type { ptr, ptr }
%struct.PyMemberDef = type { ptr, i32, i64, i32, ptr }

@.str = private unnamed_addr constant [14 x i8] c"unnamed field\00", align 1
@PyType_Type = external global %struct._typeobject, align 8
@PyExc_RuntimeError = external global ptr, align 8
@.str.1 = private unnamed_addr constant [33 x i8] c"Can't initialize builtin type %s\00", align 1
@PyTuple_Type = external global %struct._typeobject, align 8

; Function Attrs: nounwind uwtable
define internal void @initialize_static_fields(ptr noundef %0, ptr noundef %1, ptr noundef %2, i64 noundef %3, i64 noundef %4) #0 {
  %6 = alloca ptr, align 8
  %7 = alloca ptr, align 8
  %8 = alloca ptr, align 8
  %9 = alloca i64, align 8
  %10 = alloca i64, align 8
  %11 = alloca i64, align 8
  store ptr %0, ptr %6, align 8, !tbaa !4
  store ptr %1, ptr %7, align 8, !tbaa !29
  store ptr %2, ptr %8, align 8, !tbaa !31
  store i64 %3, ptr %9, align 8, !tbaa !9
  store i64 %4, ptr %10, align 8, !tbaa !9
  %12 = load ptr, ptr %7, align 8, !tbaa !29
  %13 = getelementptr inbounds nuw %struct.PyStructSequence_Desc, ptr %12, i32 0, i32 0
  %14 = load ptr, ptr %13, align 8, !tbaa !33
  %15 = load ptr, ptr %6, align 8, !tbaa !4
  %16 = getelementptr inbounds nuw %struct._typeobject, ptr %15, i32 0, i32 1
  store ptr %14, ptr %16, align 8, !tbaa !16
  call void @llvm.lifetime.start.p0(i64 8, ptr %11) #9
  %17 = load i64, ptr %9, align 8, !tbaa !9
  %18 = load ptr, ptr %7, align 8, !tbaa !29
  %19 = getelementptr inbounds nuw %struct.PyStructSequence_Desc, ptr %18, i32 0, i32 3
  %20 = load i32, ptr %19, align 8, !tbaa !51
  %21 = sext i32 %20 to i64
  %22 = sub i64 %17, %21
  store i64 %22, ptr %11, align 8, !tbaa !9
  %23 = load i64, ptr %11, align 8, !tbaa !9
  %24 = sub i64 %23, 1
  %25 = mul i64 %24, 8
  %26 = add i64 32, %25
  %27 = load ptr, ptr %6, align 8, !tbaa !4
  %28 = getelementptr inbounds nuw %struct._typeobject, ptr %27, i32 0, i32 2
  store i64 %26, ptr %28, align 8, !tbaa !52
  %29 = load ptr, ptr %6, align 8, !tbaa !4
  %30 = getelementptr inbounds nuw %struct._typeobject, ptr %29, i32 0, i32 3
  store i64 8, ptr %30, align 8, !tbaa !53
  %31 = load ptr, ptr %6, align 8, !tbaa !4
  %32 = getelementptr inbounds nuw %struct._typeobject, ptr %31, i32 0, i32 4
  store ptr @structseq_dealloc, ptr %32, align 8, !tbaa !54
  %33 = load ptr, ptr %6, align 8, !tbaa !4
  %34 = getelementptr inbounds nuw %struct._typeobject, ptr %33, i32 0, i32 9
  store ptr @structseq_repr, ptr %34, align 8, !tbaa !55
  %35 = load ptr, ptr %7, align 8, !tbaa !29
  %36 = getelementptr inbounds nuw %struct.PyStructSequence_Desc, ptr %35, i32 0, i32 1
  %37 = load ptr, ptr %36, align 8, !tbaa !56
  %38 = load ptr, ptr %6, align 8, !tbaa !4
  %39 = getelementptr inbounds nuw %struct._typeobject, ptr %38, i32 0, i32 20
  store ptr %37, ptr %39, align 8, !tbaa !57
  %40 = load ptr, ptr %6, align 8, !tbaa !4
  %41 = getelementptr inbounds nuw %struct._typeobject, ptr %40, i32 0, i32 30
  store ptr @PyTuple_Type, ptr %41, align 8, !tbaa !58
  %42 = load ptr, ptr %6, align 8, !tbaa !4
  %43 = getelementptr inbounds nuw %struct._typeobject, ptr %42, i32 0, i32 27
  store ptr @structseq_methods, ptr %43, align 8, !tbaa !59
  %44 = load ptr, ptr %6, align 8, !tbaa !4
  %45 = getelementptr inbounds nuw %struct._typeobject, ptr %44, i32 0, i32 37
  store ptr @structseq_new, ptr %45, align 8, !tbaa !60
  %46 = load i64, ptr %10, align 8, !tbaa !9
  %47 = or i64 16384, %46
  %48 = load ptr, ptr %6, align 8, !tbaa !4
  %49 = getelementptr inbounds nuw %struct._typeobject, ptr %48, i32 0, i32 19
  store i64 %47, ptr %49, align 8, !tbaa !32
  %50 = load ptr, ptr %6, align 8, !tbaa !4
  %51 = getelementptr inbounds nuw %struct._typeobject, ptr %50, i32 0, i32 21
  store ptr @structseq_traverse, ptr %51, align 8, !tbaa !61
  %52 = load ptr, ptr %8, align 8, !tbaa !31
  %53 = load ptr, ptr %6, align 8, !tbaa !4
  %54 = getelementptr inbounds nuw %struct._typeobject, ptr %53, i32 0, i32 28
  store ptr %52, ptr %54, align 8, !tbaa !62
  call void @llvm.lifetime.end.p0(i64 8, ptr %11) #9
  ret void
}

; Function Attrs: nounwind uwtable
define internal ptr @initialize_members(ptr noundef %0, i64 noundef %1, i64 noundef %2) #0 {
  %4 = alloca ptr, align 8
  %5 = alloca ptr, align 8
  %6 = alloca i64, align 8
  %7 = alloca i64, align 8
  %8 = alloca ptr, align 8
  %9 = alloca i32, align 4
  %10 = alloca i64, align 8
  %11 = alloca i64, align 8
  store ptr %0, ptr %5, align 8, !tbaa !29
  store i64 %1, ptr %6, align 8, !tbaa !9
  store i64 %2, ptr %7, align 8, !tbaa !9
  call void @llvm.lifetime.start.p0(i64 8, ptr %8) #9
  %12 = load i64, ptr %6, align 8, !tbaa !9
  %13 = load i64, ptr %7, align 8, !tbaa !9
  %14 = sub i64 %12, %13
  %15 = add i64 %14, 1
  %16 = icmp ugt i64 %15, 230584300921369395
  br i1 %16, label %17, label %18

17:                                               ; preds = %3
  br label %25

18:                                               ; preds = %3
  %19 = load i64, ptr %6, align 8, !tbaa !9
  %20 = load i64, ptr %7, align 8, !tbaa !9
  %21 = sub i64 %19, %20
  %22 = add i64 %21, 1
  %23 = mul i64 %22, 40
  %24 = call ptr @PyMem_Malloc(i64 noundef %23)
  br label %25

25:                                               ; preds = %18, %17
  %26 = phi ptr [ null, %17 ], [ %24, %18 ]
  store ptr %26, ptr %8, align 8, !tbaa !31
  %27 = load ptr, ptr %8, align 8, !tbaa !31
  %28 = icmp eq ptr %27, null
  br i1 %28, label %29, label %31

29:                                               ; preds = %25
  %30 = call ptr @PyErr_NoMemory()
  store ptr null, ptr %4, align 8
  store i32 1, ptr %9, align 4
  br label %95

31:                                               ; preds = %25
  call void @llvm.lifetime.start.p0(i64 8, ptr %10) #9
  call void @llvm.lifetime.start.p0(i64 8, ptr %11) #9
  store i64 0, ptr %11, align 8, !tbaa !9
  store i64 0, ptr %10, align 8, !tbaa !9
  br label %32

32:                                               ; preds = %86, %31
  %33 = load i64, ptr %10, align 8, !tbaa !9
  %34 = load i64, ptr %6, align 8, !tbaa !9
  %35 = icmp slt i64 %33, %34
  br i1 %35, label %36, label %89

36:                                               ; preds = %32
  %37 = load ptr, ptr %5, align 8, !tbaa !29
  %38 = getelementptr inbounds nuw %struct.PyStructSequence_Desc, ptr %37, i32 0, i32 2
  %39 = load ptr, ptr %38, align 8, !tbaa !39
  %40 = load i64, ptr %10, align 8, !tbaa !9
  %41 = getelementptr %struct.PyStructSequence_Field, ptr %39, i64 %40
  %42 = getelementptr inbounds nuw %struct.PyStructSequence_Field, ptr %41, i32 0, i32 0
  %43 = load ptr, ptr %42, align 8, !tbaa !40
  %44 = icmp eq ptr %43, @.str
  br i1 %44, label %45, label %46

45:                                               ; preds = %36
  br label %86

46:                                               ; preds = %36
  %47 = load ptr, ptr %5, align 8, !tbaa !29
  %48 = getelementptr inbounds nuw %struct.PyStructSequence_Desc, ptr %47, i32 0, i32 2
  %49 = load ptr, ptr %48, align 8, !tbaa !39
  %50 = load i64, ptr %10, align 8, !tbaa !9
  %51 = getelementptr %struct.PyStructSequence_Field, ptr %49, i64 %50
  %52 = getelementptr inbounds nuw %struct.PyStructSequence_Field, ptr %51, i32 0, i32 0
  %53 = load ptr, ptr %52, align 8, !tbaa !40
  %54 = load ptr, ptr %8, align 8, !tbaa !31
  %55 = load i64, ptr %11, align 8, !tbaa !9
  %56 = getelementptr %struct.PyMemberDef, ptr %54, i64 %55
  %57 = getelementptr inbounds nuw %struct.PyMemberDef, ptr %56, i32 0, i32 0
  store ptr %53, ptr %57, align 8, !tbaa !43
  %58 = load ptr, ptr %8, align 8, !tbaa !31
  %59 = load i64, ptr %11, align 8, !tbaa !9
  %60 = getelementptr %struct.PyMemberDef, ptr %58, i64 %59
  %61 = getelementptr inbounds nuw %struct.PyMemberDef, ptr %60, i32 0, i32 1
  store i32 6, ptr %61, align 8, !tbaa !45
  %62 = load i64, ptr %10, align 8, !tbaa !9
  %63 = mul i64 %62, 8
  %64 = add i64 24, %63
  %65 = load ptr, ptr %8, align 8, !tbaa !31
  %66 = load i64, ptr %11, align 8, !tbaa !9
  %67 = getelementptr %struct.PyMemberDef, ptr %65, i64 %66
  %68 = getelementptr inbounds nuw %struct.PyMemberDef, ptr %67, i32 0, i32 2
  store i64 %64, ptr %68, align 8, !tbaa !46
  %69 = load ptr, ptr %8, align 8, !tbaa !31
  %70 = load i64, ptr %11, align 8, !tbaa !9
  %71 = getelementptr %struct.PyMemberDef, ptr %69, i64 %70
  %72 = getelementptr inbounds nuw %struct.PyMemberDef, ptr %71, i32 0, i32 3
  store i32 1, ptr %72, align 8, !tbaa !47
  %73 = load ptr, ptr %5, align 8, !tbaa !29
  %74 = getelementptr inbounds nuw %struct.PyStructSequence_Desc, ptr %73, i32 0, i32 2
  %75 = load ptr, ptr %74, align 8, !tbaa !39
  %76 = load i64, ptr %10, align 8, !tbaa !9
  %77 = getelementptr %struct.PyStructSequence_Field, ptr %75, i64 %76
  %78 = getelementptr inbounds nuw %struct.PyStructSequence_Field, ptr %77, i32 0, i32 1
  %79 = load ptr, ptr %78, align 8, !tbaa !48
  %80 = load ptr, ptr %8, align 8, !tbaa !31
  %81 = load i64, ptr %11, align 8, !tbaa !9
  %82 = getelementptr %struct.PyMemberDef, ptr %80, i64 %81
  %83 = getelementptr inbounds nuw %struct.PyMemberDef, ptr %82, i32 0, i32 4
  store ptr %79, ptr %83, align 8, !tbaa !49
  %84 = load i64, ptr %11, align 8, !tbaa !9
  %85 = add i64 %84, 1
  store i64 %85, ptr %11, align 8, !tbaa !9
  br label %86

86:                                               ; preds = %46, %45
  %87 = load i64, ptr %10, align 8, !tbaa !9
  %88 = add i64 %87, 1
  store i64 %88, ptr %10, align 8, !tbaa !9
  br label %32, !llvm.loop !50

89:                                               ; preds = %32
  %90 = load ptr, ptr %8, align 8, !tbaa !31
  %91 = load i64, ptr %11, align 8, !tbaa !9
  %92 = getelementptr %struct.PyMemberDef, ptr %90, i64 %91
  %93 = getelementptr inbounds nuw %struct.PyMemberDef, ptr %92, i32 0, i32 0
  store ptr null, ptr %93, align 8, !tbaa !43
  %94 = load ptr, ptr %8, align 8, !tbaa !31
  store ptr %94, ptr %4, align 8
  store i32 1, ptr %9, align 4
  call void @llvm.lifetime.end.p0(i64 8, ptr %11) #9
  call void @llvm.lifetime.end.p0(i64 8, ptr %10) #9
  br label %95

95:                                               ; preds = %89, %29
  call void @llvm.lifetime.end.p0(i64 8, ptr %8) #9
  %96 = load ptr, ptr %4, align 8
  ret ptr %96
}

; Function Attrs: nounwind uwtable
define internal i64 @count_members(ptr noundef %0, ptr noundef %1) #0 {
  %3 = alloca ptr, align 8
  %4 = alloca ptr, align 8
  %5 = alloca i64, align 8
  store ptr %0, ptr %3, align 8, !tbaa !29
  store ptr %1, ptr %4, align 8, !tbaa !37
  call void @llvm.lifetime.start.p0(i64 8, ptr %5) #9
  %6 = load ptr, ptr %4, align 8, !tbaa !37
  store i64 0, ptr %6, align 8, !tbaa !9
  store i64 0, ptr %5, align 8, !tbaa !9
  br label %7

7:                                                ; preds = %30, %2
  %8 = load ptr, ptr %3, align 8, !tbaa !29
  %9 = getelementptr inbounds nuw %struct.PyStructSequence_Desc, ptr %8, i32 0, i32 2
  %10 = load ptr, ptr %9, align 8, !tbaa !39
  %11 = load i64, ptr %5, align 8, !tbaa !9
  %12 = getelementptr %struct.PyStructSequence_Field, ptr %10, i64 %11
  %13 = getelementptr inbounds nuw %struct.PyStructSequence_Field, ptr %12, i32 0, i32 0
  %14 = load ptr, ptr %13, align 8, !tbaa !40
  %15 = icmp ne ptr %14, null
  br i1 %15, label %16, label %33

16:                                               ; preds = %7
  %17 = load ptr, ptr %3, align 8, !tbaa !29
  %18 = getelementptr inbounds nuw %struct.PyStructSequence_Desc, ptr %17, i32 0, i32 2
  %19 = load ptr, ptr %18, align 8, !tbaa !39
  %20 = load i64, ptr %5, align 8, !tbaa !9
  %21 = getelementptr %struct.PyStructSequence_Field, ptr %19, i64 %20
  %22 = getelementptr inbounds nuw %struct.PyStructSequence_Field, ptr %21, i32 0, i32 0
  %23 = load ptr, ptr %22, align 8, !tbaa !40
  %24 = icmp eq ptr %23, @.str
  br i1 %24, label %25, label %29

25:                                               ; preds = %16
  %26 = load ptr, ptr %4, align 8, !tbaa !37
  %27 = load i64, ptr %26, align 8, !tbaa !9
  %28 = add i64 %27, 1
  store i64 %28, ptr %26, align 8, !tbaa !9
  br label %29

29:                                               ; preds = %25, %16
  br label %30

30:                                               ; preds = %29
  %31 = load i64, ptr %5, align 8, !tbaa !9
  %32 = add i64 %31, 1
  store i64 %32, ptr %5, align 8, !tbaa !9
  br label %7, !llvm.loop !42

33:                                               ; preds = %7
  %34 = load i64, ptr %5, align 8, !tbaa !9
  call void @llvm.lifetime.end.p0(i64 8, ptr %5) #9
  ret i64 %34
}

; Function Attrs: inlinehint nounwind uwtable
define internal void @Py_SET_TYPE(ptr noundef %0, ptr noundef %1) #3 {
  %3 = alloca ptr, align 8
  %4 = alloca ptr, align 8
  store ptr %0, ptr %3, align 8, !tbaa !12
  store ptr %1, ptr %4, align 8, !tbaa !4
  %5 = load ptr, ptr %4, align 8, !tbaa !4
  %6 = load ptr, ptr %3, align 8, !tbaa !12
  %7 = getelementptr inbounds nuw %struct._object, ptr %6, i32 0, i32 1
  store ptr %5, ptr %7, align 8, !tbaa !36
  ret void
}

; Function Attrs: inlinehint nounwind uwtable
define internal ptr @_Py_TYPE(ptr noundef %0) #3 {
  %2 = alloca ptr, align 8
  store ptr %0, ptr %2, align 8, !tbaa !12
  %3 = load ptr, ptr %2, align 8, !tbaa !12
  %4 = getelementptr inbounds nuw %struct._object, ptr %3, i32 0, i32 1
  %5 = load ptr, ptr %4, align 8, !tbaa !36
  ret ptr %5
}

; Function Attrs: nounwind uwtable
define hidden i32 @_PyStructSequence_InitBuiltinWithFlags(ptr noundef %0, ptr noundef %1, ptr noundef %2, i64 noundef %3) #0 {
  %5 = alloca i32, align 4
  %6 = alloca ptr, align 8
  %7 = alloca ptr, align 8
  %8 = alloca ptr, align 8
  %9 = alloca i64, align 8
  %10 = alloca i64, align 8
  %11 = alloca i64, align 8
  %12 = alloca ptr, align 8
  %13 = alloca i32, align 4
  store ptr %0, ptr %6, align 8, !tbaa !27
  store ptr %1, ptr %7, align 8, !tbaa !4
  store ptr %2, ptr %8, align 8, !tbaa !29
  store i64 %3, ptr %9, align 8, !tbaa !9
  %14 = load ptr, ptr %7, align 8, !tbaa !4
  %15 = call ptr @_Py_TYPE(ptr noundef %14)
  %16 = icmp eq ptr %15, null
  br i1 %16, label %17, label %19

17:                                               ; preds = %4
  %18 = load ptr, ptr %7, align 8, !tbaa !4
  call void @Py_SET_TYPE(ptr noundef %18, ptr noundef @PyType_Type)
  br label %19

19:                                               ; preds = %17, %4
  call void @llvm.lifetime.start.p0(i64 8, ptr %10) #9
  call void @llvm.lifetime.start.p0(i64 8, ptr %11) #9
  %20 = load ptr, ptr %8, align 8, !tbaa !29
  %21 = call i64 @count_members(ptr noundef %20, ptr noundef %10)
  store i64 %21, ptr %11, align 8, !tbaa !9
  call void @llvm.lifetime.start.p0(i64 8, ptr %12) #9
  store ptr null, ptr %12, align 8, !tbaa !31
  %22 = load ptr, ptr %7, align 8, !tbaa !4
  %23 = getelementptr inbounds nuw %struct._typeobject, ptr %22, i32 0, i32 19
  %24 = load i64, ptr %23, align 8, !tbaa !32
  %25 = and i64 %24, 4096
  %26 = icmp eq i64 %25, 0
  br i1 %26, label %27, label %42

27:                                               ; preds = %19
  %28 = load ptr, ptr %8, align 8, !tbaa !29
  %29 = load i64, ptr %11, align 8, !tbaa !9
  %30 = load i64, ptr %10, align 8, !tbaa !9
  %31 = call ptr @initialize_members(ptr noundef %28, i64 noundef %29, i64 noundef %30)
  store ptr %31, ptr %12, align 8, !tbaa !31
  %32 = load ptr, ptr %12, align 8, !tbaa !31
  %33 = icmp eq ptr %32, null
  br i1 %33, label %34, label %35

34:                                               ; preds = %27
  br label %63

35:                                               ; preds = %27
  %36 = load ptr, ptr %7, align 8, !tbaa !4
  %37 = load ptr, ptr %8, align 8, !tbaa !29
  %38 = load ptr, ptr %12, align 8, !tbaa !31
  %39 = load i64, ptr %11, align 8, !tbaa !9
  %40 = load i64, ptr %9, align 8, !tbaa !9
  call void @initialize_static_fields(ptr noundef %36, ptr noundef %37, ptr noundef %38, i64 noundef %39, i64 noundef %40)
  %41 = load ptr, ptr %7, align 8, !tbaa !4
  call void @_Py_SetImmortal(ptr noundef %41)
  br label %42

42:                                               ; preds = %35, %19
  %43 = load ptr, ptr %6, align 8, !tbaa !27
  %44 = load ptr, ptr %7, align 8, !tbaa !4
  %45 = call i32 @_PyStaticType_InitBuiltin(ptr noundef %43, ptr noundef %44)
  %46 = icmp slt i32 %45, 0
  br i1 %46, label %47, label %53

47:                                               ; preds = %42
  %48 = load ptr, ptr @PyExc_RuntimeError, align 8, !tbaa !12
  %49 = load ptr, ptr %8, align 8, !tbaa !29
  %50 = getelementptr inbounds nuw %struct.PyStructSequence_Desc, ptr %49, i32 0, i32 0
  %51 = load ptr, ptr %50, align 8, !tbaa !33
  %52 = call ptr (ptr, ptr, ...) @PyErr_Format(ptr noundef %48, ptr noundef @.str.1, ptr noundef %51)
  br label %63

53:                                               ; preds = %42
  %54 = load ptr, ptr %8, align 8, !tbaa !29
  %55 = load ptr, ptr %7, align 8, !tbaa !4
  %56 = call ptr @_PyType_GetDict(ptr noundef %55)
  %57 = load i64, ptr %11, align 8, !tbaa !9
  %58 = load i64, ptr %10, align 8, !tbaa !9
  %59 = call i32 @initialize_structseq_dict(ptr noundef %54, ptr noundef %56, i64 noundef %57, i64 noundef %58)
  %60 = icmp slt i32 %59, 0
  br i1 %60, label %61, label %62

61:                                               ; preds = %53
  br label %63

62:                                               ; preds = %53
  store i32 0, ptr %5, align 4
  store i32 1, ptr %13, align 4
  br label %69

63:                                               ; preds = %61, %47, %34
  %64 = load ptr, ptr %12, align 8, !tbaa !31
  %65 = icmp ne ptr %64, null
  br i1 %65, label %66, label %68

66:                                               ; preds = %63
  %67 = load ptr, ptr %12, align 8, !tbaa !31
  call void @PyMem_Free(ptr noundef %67)
  br label %68

68:                                               ; preds = %66, %63
  store i32 -1, ptr %5, align 4
  store i32 1, ptr %13, align 4
  br label %69

69:                                               ; preds = %68, %62
  call void @llvm.lifetime.end.p0(i64 8, ptr %12) #9
  call void @llvm.lifetime.end.p0(i64 8, ptr %11) #9
  call void @llvm.lifetime.end.p0(i64 8, ptr %10) #9
  %70 = load i32, ptr %5, align 4
  ret i32 %70
}