; Function Attrs: nounwind uwtable
define hidden range(i32 -1, 1) i32 @_PyStructSequence_InitBuiltinWithFlags(ptr noundef %0, ptr noundef %1, ptr noundef readonly captures(none) %2, i64 noundef %3) local_unnamed_addr #0 {
  %5 = getelementptr i8, ptr %1, i64 8
  %.val = load ptr, ptr %5, align 8, !tbaa !22
  %6 = icmp eq ptr %.val, null
  br i1 %6, label %7, label %8

7:                                                ; preds = %4
  store ptr @PyType_Type, ptr %5, align 8, !tbaa !22
  br label %8

8:                                                ; preds = %7, %4
  %9 = getelementptr inbounds nuw i8, ptr %2, i64 16
  %10 = load ptr, ptr %9, align 8, !tbaa !23
  %11 = load ptr, ptr %10, align 8, !tbaa !26
  %.not8.i = icmp eq ptr %11, null
  br i1 %.not8.i, label %count_members.exit, label %.lr.ph.i

.lr.ph.i:                                         ; preds = %8, %.lr.ph.i
  %.027 = phi i64 [ %spec.select, %.lr.ph.i ], [ 0, %8 ]
  %12 = phi i64 [ %spec.select34, %.lr.ph.i ], [ 0, %8 ]
  %13 = phi ptr [ %18, %.lr.ph.i ], [ %11, %8 ]
  %.09.i = phi i64 [ %16, %.lr.ph.i ], [ 0, %8 ]
  %14 = icmp eq ptr %13, @.str
  %15 = add i64 %12, 1
  %spec.select = select i1 %14, i64 %15, i64 %.027
  %spec.select34 = select i1 %14, i64 %15, i64 %12
  %16 = add i64 %.09.i, 1
  %17 = getelementptr %struct.PyStructSequence_Field, ptr %10, i64 %16
  %18 = load ptr, ptr %17, align 8, !tbaa !26
  %.not.i = icmp eq ptr %18, null
  br i1 %.not.i, label %count_members.exit, label %.lr.ph.i, !llvm.loop !28

count_members.exit:                               ; preds = %.lr.ph.i, %8
  %.2 = phi i64 [ 0, %8 ], [ %spec.select, %.lr.ph.i ]
  %.0.lcssa.i = phi i64 [ 0, %8 ], [ %16, %.lr.ph.i ]
  %19 = getelementptr inbounds nuw i8, ptr %1, i64 168
  %20 = load i64, ptr %19, align 8, !tbaa !30
  %21 = and i64 %20, 4096
  %22 = icmp eq i64 %21, 0
  br i1 %22, label %23, label %75

23:                                               ; preds = %count_members.exit
  %24 = sub i64 %.0.lcssa.i, %.2
  %25 = add i64 %24, 1
  %26 = icmp ugt i64 %25, 230584300921369395
  br i1 %26, label %initialize_members.exit.thread, label %27

27:                                               ; preds = %23
  %28 = mul nuw nsw i64 %25, 40
  %29 = tail call ptr @PyMem_Malloc(i64 noundef %28) #9
  %30 = icmp eq ptr %29, null
  br i1 %30, label %initialize_members.exit.thread, label %.preheader.i

.preheader.i:                                     ; preds = %27
  %31 = icmp sgt i64 %.0.lcssa.i, 0
  br i1 %31, label %.lr.ph.i25, label %initialize_members.exit.thread30

initialize_members.exit.thread30:                 ; preds = %.preheader.i
  store ptr null, ptr %29, align 8, !tbaa !31
  br label %52

.lr.ph.i25:                                       ; preds = %.preheader.i
  %32 = load ptr, ptr %9, align 8, !tbaa !23
  br label %34

initialize_members.exit.thread:                   ; preds = %23, %27
  %33 = tail call ptr @PyErr_NoMemory() #9
  br label %.thread

34:                                               ; preds = %49, %.lr.ph.i25
  %.035.i = phi i64 [ 0, %.lr.ph.i25 ], [ %.1.i, %49 ]
  %.02934.i = phi i64 [ 0, %.lr.ph.i25 ], [ %50, %49 ]
  %35 = getelementptr %struct.PyStructSequence_Field, ptr %32, i64 %.02934.i
  %36 = load ptr, ptr %35, align 8, !tbaa !26
  %37 = icmp eq ptr %36, @.str
  br i1 %37, label %49, label %38

38:                                               ; preds = %34
  %39 = getelementptr %struct.PyMemberDef, ptr %29, i64 %.035.i
  store ptr %36, ptr %39, align 8, !tbaa !31
  %40 = getelementptr inbounds nuw i8, ptr %39, i64 8
  store i32 6, ptr %40, align 8, !tbaa !33
  %41 = shl i64 %.02934.i, 3
  %42 = add i64 %41, 24
  %43 = getelementptr inbounds nuw i8, ptr %39, i64 16
  store i64 %42, ptr %43, align 8, !tbaa !34
  %44 = getelementptr inbounds nuw i8, ptr %39, i64 24
  store i32 1, ptr %44, align 8, !tbaa !35
  %45 = getelementptr %struct.PyStructSequence_Field, ptr %32, i64 %.02934.i, i32 1
  %46 = load ptr, ptr %45, align 8, !tbaa !36
  %47 = getelementptr inbounds nuw i8, ptr %39, i64 32
  store ptr %46, ptr %47, align 8, !tbaa !37
  %48 = add i64 %.035.i, 1
  br label %49

49:                                               ; preds = %38, %34
  %.1.i = phi i64 [ %.035.i, %34 ], [ %48, %38 ]
  %50 = add nuw nsw i64 %.02934.i, 1
  %exitcond.not.i = icmp eq i64 %50, %.0.lcssa.i
  br i1 %exitcond.not.i, label %initialize_members.exit, label %34, !llvm.loop !38

initialize_members.exit:                          ; preds = %49
  %51 = getelementptr %struct.PyMemberDef, ptr %29, i64 %.1.i
  store ptr null, ptr %51, align 8, !tbaa !31
  br label %52

52:                                               ; preds = %initialize_members.exit, %initialize_members.exit.thread30
  %53 = load ptr, ptr %2, align 8, !tbaa !39
  %54 = getelementptr inbounds nuw i8, ptr %1, i64 24
  store ptr %53, ptr %54, align 8, !tbaa !9
  %55 = getelementptr inbounds nuw i8, ptr %2, i64 24
  %56 = load i32, ptr %55, align 8, !tbaa !40
  %57 = xor i32 %56, -1
  %58 = sext i32 %57 to i64
  %59 = add i64 %.0.lcssa.i, %58
  %60 = shl i64 %59, 3
  %61 = add i64 %60, 32
  %62 = getelementptr inbounds nuw i8, ptr %1, i64 32
  store i64 %61, ptr %62, align 8, !tbaa !41
  %63 = getelementptr inbounds nuw i8, ptr %1, i64 40
  store i64 8, ptr %63, align 8, !tbaa !42
  %64 = getelementptr inbounds nuw i8, ptr %1, i64 48
  store ptr @structseq_dealloc, ptr %64, align 8, !tbaa !43
  %65 = getelementptr inbounds nuw i8, ptr %1, i64 88
  store ptr @structseq_repr, ptr %65, align 8, !tbaa !44
  %66 = getelementptr inbounds nuw i8, ptr %2, i64 8
  %67 = load ptr, ptr %66, align 8, !tbaa !45
  %68 = getelementptr inbounds nuw i8, ptr %1, i64 176
  store ptr %67, ptr %68, align 8, !tbaa !46
  %69 = getelementptr inbounds nuw i8, ptr %1, i64 256
  store ptr @PyTuple_Type, ptr %69, align 8, !tbaa !47
  %70 = getelementptr inbounds nuw i8, ptr %1, i64 232
  store ptr @structseq_methods, ptr %70, align 8, !tbaa !48
  %71 = getelementptr inbounds nuw i8, ptr %1, i64 312
  store ptr @structseq_new, ptr %71, align 8, !tbaa !49
  %72 = or i64 %3, 16384
  store i64 %72, ptr %19, align 8, !tbaa !30
  %73 = getelementptr inbounds nuw i8, ptr %1, i64 184
  store ptr @structseq_traverse, ptr %73, align 8, !tbaa !50
  %74 = getelementptr inbounds nuw i8, ptr %1, i64 240
  store ptr %29, ptr %74, align 8, !tbaa !51
  tail call void @_Py_SetImmortal(ptr noundef %1) #9
  br label %75

75:                                               ; preds = %52, %count_members.exit
  %.0 = phi ptr [ %29, %52 ], [ null, %count_members.exit ]
  %76 = tail call i32 @_PyStaticType_InitBuiltin(ptr noundef %0, ptr noundef nonnull %1) #9
  %77 = icmp slt i32 %76, 0
  br i1 %77, label %78, label %82

78:                                               ; preds = %75
  %79 = load ptr, ptr @PyExc_RuntimeError, align 8, !tbaa !4
  %80 = load ptr, ptr %2, align 8, !tbaa !39
  %81 = tail call ptr (ptr, ptr, ...) @PyErr_Format(ptr noundef %79, ptr noundef nonnull @.str.1, ptr noundef %80) #9
  br label %86

82:                                               ; preds = %75
  %83 = tail call ptr @_PyType_GetDict(ptr noundef nonnull %1) #9
  %84 = tail call fastcc i32 @initialize_structseq_dict(ptr noundef %2, ptr noundef %83, i64 noundef %.0.lcssa.i, i64 noundef %.2)
  %85 = icmp slt i32 %84, 0
  br i1 %85, label %86, label %.thread

86:                                               ; preds = %82, %78
  %.not = icmp eq ptr %.0, null
  br i1 %.not, label %.thread, label %87

87:                                               ; preds = %86
  tail call void @PyMem_Free(ptr noundef nonnull %.0) #9
  br label %.thread

.thread:                                          ; preds = %initialize_members.exit.thread, %86, %87, %82
  %.021 = phi i32 [ 0, %82 ], [ -1, %87 ], [ -1, %86 ], [ -1, %initialize_members.exit.thread ]
  ret i32 %.021
}